Certificate:
    Data:
        Version: 1 (0x0)
        Serial Number:
            63:e9:8a:3e:b3:7a:66:e2:79:1c:ed:89:dd:36:b4:36:f9:97:31:e9
        Signature Algorithm: NULL
        Issuer: C = RU, ST = Moscow, L = Moscow, O = Pastor Ltd, OU = Testing, CN = test.pastor.com
        Validity
            Not Before: Jan  7 15:42:57 2019 GMT
            Not After : Jan  4 15:42:57 2029 GMT
        Subject: C = RU, ST = Moscow, L = Moscow, O = Pastor Ltd, OU = Testing, CN = test.pastor.com
        Subject Public Key Info:
            Public Key Algorithm: id-ecPublicKey
                Public-Key: (256 bit)
                pub:
                    04:4e:7a:9b:eb:db:ef:6d:4c:de:63:a9:55:57:b1:
                    db:f4:4d:66:6a:c1:61:1c:cf:75:2e:aa:39:70:79:
                    8e:18:35:03:35:7b:b6:a3:d5:f5:1a:52:2f:56:d4:
                    d4:e8:e7:fa:3a:2e:30:76:97:6a:65:aa:fa:48:c5:
                    4d:74:79:de:e1
                ASN1 OID: prime256v1
                NIST CURVE: P-256
    Signature Algorithm: NULL
-----BEGIN CERTIFICATE-----
MIIB3DCCAYECFGPpij6zembieRztid02tDb5lzHpMAoGCCqGSM49BAMCMHAxCzAJ
BgNVBAYTAlJVMQ8wDQYDVQQIDAZNb3Njb3cxDzANBgNVBAcMBk1vc2NvdzETMBEG
A1UECgwKUGFzdG9yIEx0ZDEQMA4GA1UECwwHVGVzdGluZzEYMBYGA1UEAwwPdGVz
dC5wYXN0b3IuY29tMB4XDTE5MDEwNzE1NDI1N1oXDTI5MDEwNDE1NDI1N1owcDEL
MAkGA1UEBhMCUlUxDzANBgNVBAgMBk1vc2NvdzEPMA0GA1UEBwwGTW9zY293MRMw
EQYDVQQKDApQYXN0b3IgTHRkMRAwDgYDVQQLDAdUZXN0aW5nMRgwFgYDVQQDDA90
ZXN0LnBhc3Rvci5jb20wWTATBgcqhkjOPQIBBggqhkjOPQMBBwNCAAROepvr2+9t
TN5jqVVXsdv0TWZqwWEcz3UuqjlweY4YNQM1e7aj1fUaUi9W1NTo5/o6LjB2l2pl
qvpIxU10ed7hMAoGCCqGSM49BAMCA0kAMEYCIQCaenLNqT8Mv8yE5+vz6LzZsECo
IgG84TbM8JUjFMT+SQIhALdukIUicE5uaS2O87QGPvkTS8R4DDiydiOI5JsgIKF1
-----END CERTIFICATE-----
